target datalayout = "e-m:e-p270:32:32-p271:32:32-p272:64:64-i64:64-i128:128-f80:128-n8:16:32:64-S128"
target triple = "x86_64-pc-linux-gnu"

; Function Attrs: nounwind uwtable
define internal i32 @send_bio_chars(ptr noundef %0, ptr noundef %1, i32 noundef %2) #0 {
  %4 = alloca i32, align 4
  %5 = alloca ptr, align 8
  %6 = alloca ptr, align 8
  %7 = alloca i32, align 4
  store ptr %0, ptr %5, align 8, !tbaa !14
  store ptr %1, ptr %6, align 8, !tbaa !14
  store i32 %2, ptr %7, align 4, !tbaa !10
  %8 = load ptr, ptr %5, align 8, !tbaa !14
  %9 = icmp ne ptr %8, null
  br i1 %9, label %11, label %10

10:                                               ; preds = %3
  store i32 1, ptr %4, align 4
  br label %20

11:                                               ; preds = %3
  %12 = load ptr, ptr %5, align 8, !tbaa !14
  %13 = load ptr, ptr %6, align 8, !tbaa !14
  %14 = load i32, ptr %7, align 4, !tbaa !10
  %15 = call i32 @BIO_write(ptr noundef %12, ptr noundef %13, i32 noundef %14)
  %16 = load i32, ptr %7, align 4, !tbaa !10
  %17 = icmp ne i32 %15, %16
  br i1 %17, label %18, label %19

18:                                               ; preds = %11
  store i32 0, ptr %4, align 4
  br label %20

19:                                               ; preds = %11
  store i32 1, ptr %4, align 4
  br label %20

20:                                               ; preds = %19, %18, %10
  %21 = load i32, ptr %4, align 4
  ret i32 %21
}