; Function Attrs: nounwind uwtable
define internal range(i32 0, 2) i32 @send_bio_chars(ptr noundef %0, ptr noundef %1, i32 noundef %2) #0 {
  %.not = icmp eq ptr %0, null
  br i1 %.not, label %6, label %4

4:                                                ; preds = %3
  %5 = tail call i32 @BIO_write(ptr noundef nonnull %0, ptr noundef %1, i32 noundef %2) #8
  %.not6 = icmp eq i32 %5, %2
  %. = zext i1 %.not6 to i32
  br label %6

6:                                                ; preds = %4, %3
  %.0 = phi i32 [ 1, %3 ], [ %., %4 ]
  ret i32 %.0
}